(dp1
S'output'
p2
S"<type 'exceptions.AttributeError'> 'file' object has no attribute 'getvalue'"
p3
sS'layer'
p4
S'C:\\Users\\ze\\web2py_src\\web2py\\applications\\web2py_angularjs\\controllers/default.py'
p5
sS'code'
p6
S'# -*- coding: utf-8 -*-\n# this file is released under public domain and you can use without limitations\n\n# -------------------------------------------------------------------------\n# This is a sample controller\n# - index is the default action of any application\n# - user is required for authentication and authorization\n# - download is for downloading files uploaded in the db (does streaming)\n# -------------------------------------------------------------------------\n\nimport gluon.contrib.simplejson\n\ndef get_tasks(rows):\n    """\n    cant use this function\n            def index():\n            rows = db(db.recipe).select().as_list()\n            return dict(recipe_list=gluon.contrib.simplejson.dumps(rows))\n    at the simple way because im using fields datetime in th database :(\n    >>> rows = db(db.task).select().items()[0]\n    >>> rows\n    \'324\'\n    """\n    lista = list()\n    for row in rows:\n        arr = dict()\n        for k,v in row.items():\n            arr[k] = str(v)\n        lista.append(arr)\n    return dict(task_list=gluon.contrib.simplejson.dumps(lista))\n\ndef index():\n    rows = db(db.task).select()\n    return get_tasks(rows)\n\ndef user():\n    """\n    exposes:\n    http://..../[app]/default/user/login\n    http://..../[app]/default/user/logout\n    http://..../[app]/default/user/register\n    http://..../[app]/default/user/profile\n    http://..../[app]/default/user/retrieve_password\n    http://..../[app]/default/user/change_password\n    http://..../[app]/default/user/bulk_register\n    use @auth.requires_login()\n        @auth.requires_membership(\'group name\')\n        @auth.requires_permission(\'read\',\'table name\',record_id)\n    to decorate functions that need access control\n    also notice there is http://..../[app]/appadmin/manage/auth to allow administrator to manage users\n    """\n    return dict(form=auth())\n\n\n@cache.action()\ndef download():\n    """\n    allows downloading of uploaded files\n    http://..../[app]/default/download/[filename]\n    """\n    return response.download(request, db)\n\n\ndef call():\n    """\n    exposes services. for example:\n    http://..../[app]/default/call/jsonrpc\n    decorate with @services.jsonrpc the functions to expose\n    supports xml, json, xmlrpc, jsonrpc, amfrpc, rss, csv\n    """\n    return service()\n\ndef _TEST():\n    import doctest, sys, cStringIO, types, cgi, gluon.fileutils\n    if not gluon.fileutils.check_credentials(request):\n        raise HTTP(401, web2py_error=\'invalid credentials\')\n    stdout = sys.stdout\n    html = \'<h2>Testing controller "%s.py" ... done.</h2><br/>\\n\' \\\n        % request.controller\n    for key in sorted([key for key in globals() if not key in __symbols__+[\'_TEST\']]):\n        eval_key = eval(key)\n        if type(eval_key) == types.FunctionType:\n            number_doctests = sum([len(ds.examples) for ds in doctest.DocTestFinder().find(eval_key)])\n            if number_doctests>0:\n                sys.stdout = cStringIO.StringIO()\n                name = \'%s/controllers/%s.py in %s.__doc__\' \\\n                    % (request.folder, request.controller, key)\n                doctest.run_docstring_examples(eval_key,\n                    globals(), False, name=name)\n                report = sys.stdout.getvalue().strip()\n                if report:\n                    pf = \'failed\'\n                else:\n                    pf = \'passed\'\n                html += \'<h3 class="%s">Function %s [%s]</h3>\\n\' \\\n                    % (pf, key, pf)\n                if report:\n                    html += CODE(report, language=\'web2py\', \\\n                        link=\'/examples/global/vars/\').xml()\n                html += \'<br/>\\n\'\n            else:\n                html += \\\n                    \'<h3 class="nodoctests">Function %s [no doctests]</h3><br/>\\n\' \\\n                    % (key)\n    response._vars = html\n    sys.stdout = stdout\n_TEST()\n'
p7
sS'snapshot'
p8
(dp9
sS'traceback'
p10
S'Traceback (most recent call last):\n  File "C:\\Users\\ze\\web2py_src\\web2py\\gluon\\restricted.py", line 227, in restricted\n    exec ccode in environment\n  File "C:\\Users\\ze\\web2py_src\\web2py\\applications\\web2py_angularjs\\controllers/default.py", line 107, in <module>\n  File "C:\\Users\\ze\\web2py_src\\web2py\\applications\\web2py_angularjs\\controllers/default.py", line 90, in _TEST\nAttributeError: \'file\' object has no attribute \'getvalue\'\n'
p11
s.