(dp1
S'output'
p2
S''
sS'layer'
p3
S'Framework'
p4
sS'code'
p5
S''
sS'snapshot'
p6
(dp7
S'exception'
p8
(dp9
S'__hash__'
p10
S"<method-wrapper '__hash__' of exceptions.KeyError object>"
p11
sS'__setattr__'
p12
S"<method-wrapper '__setattr__' of exceptions.KeyError object>"
p13
sS'__reduce_ex__'
p14
S'<built-in method __reduce_ex__ of exceptions.KeyError object>'
p15
sS'__getslice__'
p16
S"<method-wrapper '__getslice__' of exceptions.KeyError object>"
p17
sS'__getitem__'
p18
S"<method-wrapper '__getitem__' of exceptions.KeyError object>"
p19
sS'__setstate__'
p20
S'<built-in method __setstate__ of exceptions.KeyError object>'
p21
sS'__reduce__'
p22
S'<built-in method __reduce__ of exceptions.KeyError object>'
p23
sS'__str__'
p24
S"<method-wrapper '__str__' of exceptions.KeyError object>"
p25
sS'__format__'
p26
S'<built-in method __format__ of exceptions.KeyError object>'
p27
sS'__getattribute__'
p28
S"<method-wrapper '__getattribute__' of exceptions.KeyError object>"
p29
sS'__class__'
p30
S"<type 'exceptions.KeyError'>"
p31
sS'__unicode__'
p32
S'<built-in method __unicode__ of exceptions.KeyError object>'
p33
sS'__delattr__'
p34
S"<method-wrapper '__delattr__' of exceptions.KeyError object>"
p35
sS'__subclasshook__'
p36
S'<built-in method __subclasshook__ of type object>'
p37
sS'__repr__'
p38
S"<method-wrapper '__repr__' of exceptions.KeyError object>"
p39
sS'args'
p40
S"(r'C:\\Users\\ze\\web2py_src\\web2py\\applications\\web2py_angularjs\\controllers/default.py',)"
p41
sS'__dict__'
p42
S'{}'
p43
sS'__sizeof__'
p44
S'<built-in method __sizeof__ of exceptions.KeyError object>'
p45
sS'__doc__'
p46
S"'Mapping key not found.'"
p47
sS'__init__'
p48
S"<method-wrapper '__init__' of exceptions.KeyError object>"
p49
sS'__new__'
p50
S'<built-in method __new__ of type object>'
p51
ssS'evalue'
p52
S"'C:\\\\Users\\\\ze\\\\web2py_src\\\\web2py\\\\applications\\\\web2py_angularjs\\\\controllers/default.py'"
p53
sS'request'
p54
cgluon.html
XML_unpickle
p55
(S'saq\x00\x00<div><table><tr><td style="font-weight:bold;vertical-align:top;">ajax</td><td style="vertical-align:top;">:</td><td><div>True</div></td></tr><tr><td style="font-weight:bold;vertical-align:top;">application</td><td style="vertical-align:top;">:</td><td><div>web2py_angularjs</div></td></tr><tr><td style="font-weight:bold;vertical-align:top;">args</td><td style="vertical-align:top;">:</td><td><div><table></table></div></td></tr><tr><td style="font-weight:bold;vertical-align:top;">cid</td><td style="vertical-align:top;">:</td><td><div>None</div></td></tr><tr><td style="font-weight:bold;vertical-align:top;">client</td><td style="vertical-align:top;">:</td><td><div>127.0.0.1</div></td></tr><tr><td style="font-weight:bold;vertical-align:top;">controller</td><td style="vertical-align:top;">:</td><td><div>default</div></td></tr><tr><td style="font-weight:bold;vertical-align:top;">cookies</td><td style="vertical-align:top;">:</td><td><div><table><tr><td style="font-weight:bold;vertical-align:top;">session_id_admin</td><td style="vertical-align:top;">:</td><td><div>127.0.0.1-129af587-874b-488c-b9a8-e70d8562c202<table><tr><td style="font-weight:bold;vertical-align:top;">comment</td><td style="vertical-align:top;">:</td><td><div></div></td></tr><tr><td style="font-weight:bold;vertical-align:top;">domain</td><td style="vertical-align:top;">:</td><td><div></div></td></tr><tr><td style="font-weight:bold;vertical-align:top;">expires</td><td style="vertical-align:top;">:</td><td><div></div></td></tr><tr><td style="font-weight:bold;vertical-align:top;">httponly</td><td style="vertical-align:top;">:</td><td><div></div></td></tr><tr><td style="font-weight:bold;vertical-align:top;">max-age</td><td style="vertical-align:top;">:</td><td><div></div></td></tr><tr><td style="font-weight:bold;vertical-align:top;">path</td><td style="vertical-align:top;">:</td><td><div></div></td></tr><tr><td style="font-weight:bold;vertical-align:top;">secure</td><td style="vertical-align:top;">:</td><td><div></div></td></tr><tr><td style="font-weight:bold;vertical-align:top;">version</td><td style="vertical-align:top;">:</td><td><div></div></td></tr></table></div></td></tr><tr><td style="font-weight:bold;vertical-align:top;">session_id_angularjs_demo</td><td style="vertical-align:top;">:</td><td><div>127.0.0.1-ffcec948-2b91-4e9d-ab17-c65151fe074d<table><tr><td style="font-weight:bold;vertical-align:top;">comment</td><td style="vertical-align:top;">:</td><td><div></div></td></tr><tr><td style="font-weight:bold;vertical-align:top;">domain</td><td style="vertical-align:top;">:</td><td><div></div></td></tr><tr><td style="font-weight:bold;vertical-align:top;">expires</td><td style="vertical-align:top;">:</td><td><div></div></td></tr><tr><td style="font-weight:bold;vertical-align:top;">httponly</td><td style="vertical-align:top;">:</td><td><div></div></td></tr><tr><td style="font-weight:bold;vertical-align:top;">max-age</td><td style="vertical-align:top;">:</td><td><div></div></td></tr><tr><td style="font-weight:bold;vertical-align:top;">path</td><td style="vertical-align:top;">:</td><td><div></div></td></tr><tr><td style="font-weight:bold;vertical-align:top;">secure</td><td style="vertical-align:top;">:</td><td><div></div></td></tr><tr><td style="font-weight:bold;vertical-align:top;">version</td><td style="vertical-align:top;">:</td><td><div></div></td></tr></table></div></td></tr><tr><td style="font-weight:bold;vertical-align:top;">session_id_app1</td><td style="vertical-align:top;">:</td><td><div>127.0.0.1-1ca7d4e9-9f7f-43f7-8ad9-9e75fa063489<table><tr><td style="font-weight:bold;vertical-align:top;">comment</td><td style="vertical-align:top;">:</td><td><div></div></td></tr><tr><td style="font-weight:bold;vertical-align:top;">domain</td><td style="vertical-align:top;">:</td><td><div></div></td></tr><tr><td style="font-weight:bold;vertical-align:top;">expires</td><td style="vertical-align:top;">:</td><td><div></div></td></tr><tr><td style="font-weight:bold;vertical-align:top;">httponly</td><td style="vertical-align:top;">:</td><td><div></div></td></tr><tr><td style="font-weight:bold;vertical-align:top;">max-age</td><td style="vertical-align:top;">:</td><td><div></div></td></tr><tr><td style="font-weight:bold;vertical-align:top;">path</td><td style="vertical-align:top;">:</td><td><div></div></td></tr><tr><td style="font-weight:bold;vertical-align:top;">secure</td><td style="vertical-align:top;">:</td><td><div></div></td></tr><tr><td style="font-weight:bold;vertical-align:top;">version</td><td style="vertical-align:top;">:</td><td><div></div></td></tr></table></div></td></tr><tr><td style="font-weight:bold;vertical-align:top;">session_id_huubapp</td><td style="vertical-align:top;">:</td><td><div>127.0.0.1-8538c100-fc61-4dc8-b1d1-77b3c207254e<table><tr><td style="font-weight:bold;vertical-align:top;">comment</td><td style="vertical-align:top;">:</td><td><div></div></td></tr><tr><td style="font-weight:bold;vertical-align:top;">domain</td><td style="vertical-align:top;">:</td><td><div></div></td></tr><tr><td style="font-weight:bold;vertical-align:top;">expires</td><td style="vertical-align:top;">:</td><td><div></div></td></tr><tr><td style="font-weight:bold;vertical-align:top;">httponly</td><td style="vertical-align:top;">:</td><td><div></div></td></tr><tr><td style="font-weight:bold;vertical-align:top;">max-age</td><td style="vertical-align:top;">:</td><td><div></div></td></tr><tr><td style="font-weight:bold;vertical-align:top;">path</td><td style="vertical-align:top;">:</td><td><div></div></td></tr><tr><td style="font-weight:bold;vertical-align:top;">secure</td><td style="vertical-align:top;">:</td><td><div></div></td></tr><tr><td style="font-weight:bold;vertical-align:top;">version</td><td style="vertical-align:top;">:</td><td><div></div></td></tr></table></div></td></tr><tr><td style="font-weight:bold;vertical-align:top;">session_id_web2py_angularjs</td><td style="vertical-align:top;">:</td><td><div>127.0.0.1-d53c2972-db0f-4172-93a7-9b93d77f568e<table><tr><td style="font-weight:bold;vertical-align:top;">comment</td><td style="vertical-align:top;">:</td><td><div></div></td></tr><tr><td style="font-weight:bold;vertical-align:top;">domain</td><td style="vertical-align:top;">:</td><td><div></div></td></tr><tr><td style="font-weight:bold;vertical-align:top;">expires</td><td style="vertical-align:top;">:</td><td><div></div></td></tr><tr><td style="font-weight:bold;vertical-align:top;">httponly</td><td style="vertical-align:top;">:</td><td><div></div></td></tr><tr><td style="font-weight:bold;vertical-align:top;">max-age</td><td style="vertical-align:top;">:</td><td><div></div></td></tr><tr><td style="font-weight:bold;vertical-align:top;">path</td><td style="vertical-align:top;">:</td><td><div></div></td></tr><tr><td style="font-weight:bold;vertical-align:top;">secure</td><td style="vertical-align:top;">:</td><td><div></div></td></tr><tr><td style="font-weight:bold;vertical-align:top;">version</td><td style="vertical-align:top;">:</td><td><div></div></td></tr></table></div></td></tr><tr><td style="font-weight:bold;vertical-align:top;">session_id_welcome</td><td style="vertical-align:top;">:</td><td><div>127.0.0.1-998b1601-8896-4c5a-ad60-8c230ced882a<table><tr><td style="font-weight:bold;vertical-align:top;">comment</td><td style="vertical-align:top;">:</td><td><div></div></td></tr><tr><td style="font-weight:bold;vertical-align:top;">domain</td><td style="vertical-align:top;">:</td><td><div></div></td></tr><tr><td style="font-weight:bold;vertical-align:top;">expires</td><td style="vertical-align:top;">:</td><td><div></div></td></tr><tr><td style="font-weight:bold;vertical-align:top;">httponly</td><td style="vertical-align:top;">:</td><td><div></div></td></tr><tr><td style="font-weight:bold;vertical-align:top;">max-age</td><td style="vertical-align:top;">:</td><td><div></div></td></tr><tr><td style="font-weight:bold;vertical-align:top;">path</td><td style="vertical-align:top;">:</td><td><div></div></td></tr><tr><td style="font-weight:bold;vertical-align:top;">secure</td><td style="vertical-align:top;">:</td><td><div></div></td></tr><tr><td style="font-weight:bold;vertical-align:top;">version</td><td style="vertical-align:top;">:</td><td><div></div></td></tr></table></div></td></tr></table></div></td></tr><tr><td style="font-weight:bold;vertical-align:top;">env</td><td style="vertical-align:top;">:</td><td><div><table><tr><td style="font-weight:bold;vertical-align:top;">CONTENT_LENGTH</td><td style="vertical-align:top;">:</td><td><div>0</div></td></tr><tr><td style="font-weight:bold;vertical-align:top;">HTTP_ACCEPT</td><td style="vertical-align:top;">:</td><td><div>*/*</div></td></tr><tr><td style="font-weight:bold;vertical-align:top;">HTTP_ACCEPT_ENCODING</td><td style="vertical-align:top;">:</td><td><div>gzip, deflate</div></td></tr><tr><td style="font-weight:bold;vertical-align:top;">HTTP_ACCEPT_LANGUAGE</td><td style="vertical-align:top;">:</td><td><div>pt-PT,pt;q=0.8,en-US;q=0.6,en;q=0.4</div></td></tr><tr><td style="font-weight:bold;vertical-align:top;">HTTP_CACHE_CONTROL</td><td style="vertical-align:top;">:</td><td><div>max-age=0</div></td></tr><tr><td style="font-weight:bold;vertical-align:top;">HTTP_CONNECTION</td><td style="vertical-align:top;">:</td><td><div>keep-alive</div></td></tr><tr><td style="font-weight:bold;vertical-align:top;">HTTP_CONTENT_LENGTH</td><td style="vertical-align:top;">:</td><td><div>0</div></td></tr><tr><td style="font-weight:bold;vertical-align:top;">HTTP_COOKIE</td><td style="vertical-align:top;">:</td><td><div>session_id_huubapp=127.0.0.1-8538c100-fc61-4dc8-b1d1-77b3c207254e; session_id_angularjs_demo=127.0.0.1-ffcec948-2b91-4e9d-ab17-c65151fe074d; session_id_welcome=127.0.0.1-998b1601-8896-4c5a-ad60-8c230ced882a; session_id_app1=127.0.0.1-1ca7d4e9-9f7f-43f7-8ad9-9e75fa063489; session_id_web2py_angularjs=127.0.0.1-d53c2972-db0f-4172-93a7-9b93d77f568e; session_id_admin=127.0.0.1-129af587-874b-488c-b9a8-e70d8562c202</div></td></tr><tr><td style="font-weight:bold;vertical-align:top;">HTTP_HOST</td><td style="vertical-align:top;">:</td><td><div>127.0.0.1:8000</div></td></tr><tr><td style="font-weight:bold;vertical-align:top;">HTTP_ORIGIN</td><td style="vertical-align:top;">:</td><td><div>http://127.0.0.1:8000</div></td></tr><tr><td style="font-weight:bold;vertical-align:top;">HTTP_REFERER</td><td style="vertical-align:top;">:</td><td><div>http://127.0.0.1:8000/admin/default/test/web2py_angularjs</div></td></tr><tr><td style="font-weight:bold;vertical-align:top;">HTTP_USER_AGENT</td><td style="vertical-align:top;">:</td><td><div>Mozilla/5.0 (Windows NT 10.0; WOW64) AppleWebKit/537.36 (KHTML, like Gecko) Chrome/51.0.2704.103 Safari/537.36</div></td></tr><tr><td style="font-weight:bold;vertical-align:top;">HTTP_X_REQUESTED_WITH</td><td style="vertical-align:top;">:</td><td><div>XMLHttpRequest</div></td></tr><tr><td style="font-weight:bold;vertical-align:top;">PATH_INFO</td><td style="vertical-align:top;">:</td><td><div>/web2py_angularjs/default/_TEST</div></td></tr><tr><td style="font-weight:bold;vertical-align:top;">QUERY_STRING</td><td style="vertical-align:top;">:</td><td><div></div></td></tr><tr><td style="font-weight:bold;vertical-align:top;">REMOTE_ADDR</td><td style="vertical-align:top;">:</td><td><div>127.0.0.1</div></td></tr><tr><td style="font-weight:bold;vertical-align:top;">REMOTE_PORT</td><td style="vertical-align:top;">:</td><td><div>57211</div></td></tr><tr><td style="font-weight:bold;vertical-align:top;">REQUEST_METHOD</td><td style="vertical-align:top;">:</td><td><div>POST</div></td></tr><tr><td style="font-weight:bold;vertical-align:top;">SCRIPT_NAME</td><td style="vertical-align:top;">:</td><td><div></div></td></tr><tr><td style="font-weight:bold;vertical-align:top;">SERVER_NAME</td><td style="vertical-align:top;">:</td><td><div>007888</div></td></tr><tr><td style="font-weight:bold;vertical-align:top;">SERVER_PORT</td><td style="vertical-align:top;">:</td><td><div>8000</div></td></tr><tr><td style="font-weight:bold;vertical-align:top;">SERVER_PROTOCOL</td><td style="vertical-align:top;">:</td><td><div>HTTP/1.1</div></td></tr><tr><td style="font-weight:bold;vertical-align:top;">SERVER_SOFTWARE</td><td style="vertical-align:top;">:</td><td><div>Rocket 1.2.6</div></td></tr><tr><td style="font-weight:bold;vertical-align:top;">app_folders</td><td style="vertical-align:top;">:</td><td><div>set([&#x27;C:\\\\Users\\\\ze\\\\web2py_src\\\\web2py\\\\applications\\\\admin\\\\&#x27;, &#x27;C:\\\\Users\\\\ze\\\\web2py_src\\\\web2py\\\\applications\\\\app1\\\\&#x27;, &#x27;C:\\\\Users\\\\ze\\\\web2py_src\\\\web2py\\\\applications\\\\welcome\\\\&#x27;, &#x27;C:\\\\Users\\\\ze\\\\web2py_src\\\\web2py\\\\applications\\\\web2py_angularjs\\\\&#x27;])</div></td></tr><tr><td style="font-weight:bold;vertical-align:top;">applications_parent</td><td style="vertical-align:top;">:</td><td><div>C:\\Users\\ze\\web2py_src\\web2py</div></td></tr><tr><td style="font-weight:bold;vertical-align:top;">cmd_args</td><td style="vertical-align:top;">:</td><td><div><table></table></div></td></tr><tr><td style="font-weight:bold;vertical-align:top;">cmd_options</td><td style="vertical-align:top;">:</td><td><div>&lt;Values at 0x3909648: {&#x27;verbose&#x27;: False, &#x27;ip&#x27;: &#x27;127.0.0.1&#x27;, &#x27;debuglevel&#x27;: 30, &#x27;with_scheduler&#x27;: False, &#x27;shutdown_timeout&#x27;: 5, &#x27;taskbar&#x27;: False, &#x27;with_coverage&#x27;: False, &#x27;pid_filename&#x27;: &#x27;httpserver.pid&#x27;, &#x27;maxthreads&#x27;: None, &#x27;softcron&#x27;: False, &#x27;server_name&#x27;: &#x27;007888&#x27;, &#x27;bpython&#x27;: False, &#x27;nogui&#x27;: False, &#x27;port&#x27;: 8000, &#x27;print_errors&#x27;: False, &#x27;extcron&#x27;: False, &#x27;runcron&#x27;: False, &#x27;run_system_tests&#x27;: False, &#x27;test&#x27;: None, &#x27;folder&#x27;: &#x27;C:\\\\Users\\\\ze\\\\web2py_src\\\\web2py&#x27;, &#x27;config&#x27;: &#x27;&#x27;, &#x27;minthreads&#x27;: None, &#x27;shell&#x27;: None, &#x27;run&#x27;: &#x27;&#x27;, &#x27;log_filename&#x27;: &#x27;httpserver.log&#x27;, &#x27;profiler_dir&#x27;: None, &#x27;args&#x27;: [&#x27;&#x27;], &#x27;socket_timeout&#x27;: 5, &#x27;ssl_ca_certificate&#x27;: None, &#x27;scheduler&#x27;: None, &#x27;interfaces&#x27;: None, &#x27;ssl_private_key&#x27;: &#x27;&#x27;, &#x27;gae&#x27;: None, &#x27;password&#x27;: &#x27;******&#x27;, &#x27;request_queue_size&#x27;: 5, &#x27;ssl_certificate&#x27;: &#x27;&#x27;, &#x27;cronjob&#x27;: False, &#x27;numthreads&#x27;: None, &#x27;quiet&#x27;: False, &#x27;import_models&#x27;: False, &#x27;timeout&#x27;: 10, &#x27;plain&#x27;: False, &#x27;nobanner&#x27;: False}&gt;</div></td></tr><tr><td style="font-weight:bold;vertical-align:top;">content_length</td><td style="vertical-align:top;">:</td><td><div>0</div></td></tr><tr><td style="font-weight:bold;vertical-align:top;">db_sessions</td><td style="vertical-align:top;">:</td><td><div>set([])</div></td></tr><tr><td style="font-weight:bold;vertical-align:top;">debugging</td><td style="vertical-align:top;">:</td><td><div>True</div></td></tr><tr><td style="font-weight:bold;vertical-align:top;">gluon_parent</td><td style="vertical-align:top;">:</td><td><div>C:\\Users\\ze\\web2py_src\\web2py</div></td></tr><tr><td style="font-weight:bold;vertical-align:top;">http_accept</td><td style="vertical-align:top;">:</td><td><div>*/*</div></td></tr><tr><td style="font-weight:bold;vertical-align:top;">http_accept_encoding</td><td style="vertical-align:top;">:</td><td><div>gzip, deflate</div></td></tr><tr><td style="font-weight:bold;vertical-align:top;">http_accept_language</td><td style="vertical-align:top;">:</td><td><div>pt-PT,pt;q=0.8,en-US;q=0.6,en;q=0.4</div></td></tr><tr><td style="font-weight:bold;vertical-align:top;">http_cache_control</td><td style="vertical-align:top;">:</td><td><div>max-age=0</div></td></tr><tr><td style="font-weight:bold;vertical-align:top;">http_connection</td><td style="vertical-align:top;">:</td><td><div>keep-alive</div></td></tr><tr><td style="font-weight:bold;vertical-align:top;">http_content_length</td><td style="vertical-align:top;">:</td><td><div>0</div></td></tr><tr><td style="font-weight:bold;vertical-align:top;">http_cookie</td><td style="vertical-align:top;">:</td><td><div>session_id_huubapp=127.0.0.1-8538c100-fc61-4dc8-b1d1-77b3c207254e; session_id_angularjs_demo=127.0.0.1-ffcec948-2b91-4e9d-ab17-c65151fe074d; session_id_welcome=127.0.0.1-998b1601-8896-4c5a-ad60-8c230ced882a; session_id_app1=127.0.0.1-1ca7d4e9-9f7f-43f7-8ad9-9e75fa063489; session_id_web2py_angularjs=127.0.0.1-d53c2972-db0f-4172-93a7-9b93d77f568e; session_id_admin=127.0.0.1-129af587-874b-488c-b9a8-e70d8562c202</div></td></tr><tr><td style="font-weight:bold;vertical-align:top;">http_host</td><td style="vertical-align:top;">:</td><td><div>127.0.0.1:8000</div></td></tr><tr><td style="font-weight:bold;vertical-align:top;">http_origin</td><td style="vertical-align:top;">:</td><td><div>http://127.0.0.1:8000</div></td></tr><tr><td style="font-weight:bold;vertical-align:top;">http_referer</td><td style="vertical-align:top;">:</td><td><div>http://127.0.0.1:8000/admin/default/test/web2py_angularjs</div></td></tr><tr><td style="font-weight:bold;vertical-align:top;">http_user_agent</td><td style="vertical-align:top;">:</td><td><div>Mozilla/5.0 (Windows NT 10.0; WOW64) AppleWebKit/537.36 (KHTML, like Gecko) Chrome/51.0.2704.103 Safari/537.36</div></td></tr><tr><td style="font-weight:bold;vertical-align:top;">http_x_requested_with</td><td style="vertical-align:top;">:</td><td><div>XMLHttpRequest</div></td></tr><tr><td style="font-weight:bold;vertical-align:top;">is_jython</td><td style="vertical-align:top;">:</td><td><div>False</div></td></tr><tr><td style="font-weight:bold;vertical-align:top;">is_pypy</td><td style="vertical-align:top;">:</td><td><div>False</div></td></tr><tr><td style="font-weight:bold;vertical-align:top;">is_source</td><td style="vertical-align:top;">:</td><td><div>True</div></td></tr><tr><td style="font-weight:bold;vertical-align:top;">local_hosts</td><td style="vertical-align:top;">:</td><td><div><table><tr><td><div>fe80::34f8:418b:9ddd:7bdd%7</div></td></tr><tr><td><div>::ffff:127.0.0.1</div></td></tr><tr><td><div>::1</div></td></tr><tr><td><div>007888.lan</div></td></tr><tr><td><div>007888</div></td></tr><tr><td><div>192.168.1.218</div></td></tr><tr><td><div>127.0.0.1</div></td></tr></table></div></td></tr><tr><td style="font-weight:bold;vertical-align:top;">path_info</td><td style="vertical-align:top;">:</td><td><div>/web2py_angularjs/default/_TEST</div></td></tr><tr><td style="font-weight:bold;vertical-align:top;">query_string</td><td style="vertical-align:top;">:</td><td><div></div></td></tr><tr><td style="font-weight:bold;vertical-align:top;">remote_addr</td><td style="vertical-align:top;">:</td><td><div>127.0.0.1</div></td></tr><tr><td style="font-weight:bold;vertical-align:top;">remote_port</td><td style="vertical-align:top;">:</td><td><div>57211</div></td></tr><tr><td style="font-weight:bold;vertical-align:top;">request_method</td><td style="vertical-align:top;">:</td><td><div>POST</div></td></tr><tr><td style="font-weight:bold;vertical-align:top;">request_uri</td><td style="vertical-align:top;">:</td><td><div>/web2py_angularjs/default/_TEST</div></td></tr><tr><td style="font-weight:bold;vertical-align:top;">script_name</td><td style="vertical-align:top;">:</td><td><div></div></td></tr><tr><td style="font-weight:bold;vertical-align:top;">server_name</td><td style="vertical-align:top;">:</td><td><div>007888</div></td></tr><tr><td style="font-weight:bold;vertical-align:top;">server_port</td><td style="vertical-align:top;">:</td><td><div>8000</div></td></tr><tr><td style="font-weight:bold;vertical-align:top;">server_protocol</td><td style="vertical-align:top;">:</td><td><div>HTTP/1.1</div></td></tr><tr><td style="font-weight:bold;vertical-align:top;">server_software</td><td style="vertical-align:top;">:</td><td><div>Rocket 1.2.6</div></td></tr><tr><td style="font-weight:bold;vertical-align:top;">web2py_path</td><td style="vertical-align:top;">:</td><td><div>C:\\Users\\ze\\web2py_src\\web2py</div></td></tr><tr><td style="font-weight:bold;vertical-align:top;">web2py_version</td><td style="vertical-align:top;">:</td><td><div>2.14.6-stable+timestamp.2016.05.10.00.21.47</div></td></tr><tr><td style="font-weight:bold;vertical-align:top;">wsgi.errors</td><td style="vertical-align:top;">:</td><td><div>&lt;open file &#x27;&lt;stderr&gt;&#x27;, mode &#x27;w&#x27; at 0x029AD0D0&gt;</div></td></tr><tr><td style="font-weight:bold;vertical-align:top;">wsgi.file_wrapper</td><td style="vertical-align:top;">:</td><td><div>&lt;class wsgiref.util.FileWrapper at 0x038D5340&gt;</div></td></tr><tr><td style="font-weight:bold;vertical-align:top;">wsgi.input</td><td style="vertical-align:top;">:</td><td><div>&lt;socket._fileobject object at 0x0A35B6F0&gt;</div></td></tr><tr><td style="font-weight:bold;vertical-align:top;">wsgi.multiprocess</td><td style="vertical-align:top;">:</td><td><div>False</div></td></tr><tr><td style="font-weight:bold;vertical-align:top;">wsgi.multithread</td><td style="vertical-align:top;">:</td><td><div>True</div></td></tr><tr><td style="font-weight:bold;vertical-align:top;">wsgi.run_once</td><td style="vertical-align:top;">:</td><td><div>False</div></td></tr><tr><td style="font-weight:bold;vertical-align:top;">wsgi.url_scheme</td><td style="vertical-align:top;">:</td><td><div>http</div></td></tr><tr><td style="font-weight:bold;vertical-align:top;">wsgi.version</td><td style="vertical-align:top;">:</td><td><div><table><tr><td><div>1</div></td></tr><tr><td><div>0</div></td></tr></table></div></td></tr><tr><td style="font-weight:bold;vertical-align:top;">wsgi_errors</td><td style="vertical-align:top;">:</td><td><div>&lt;open file &#x27;&lt;stderr&gt;&#x27;, mode &#x27;w&#x27; at 0x029AD0D0&gt;</div></td></tr><tr><td style="font-weight:bold;vertical-align:top;">wsgi_file_wrapper</td><td style="vertical-align:top;">:</td><td><div>&lt;class wsgiref.util.FileWrapper at 0x038D5340&gt;</div></td></tr><tr><td style="font-weight:bold;vertical-align:top;">wsgi_input</td><td style="vertical-align:top;">:</td><td><div>&lt;socket._fileobject object at 0x0A35B6F0&gt;</div></td></tr><tr><td style="font-weight:bold;vertical-align:top;">wsgi_multiprocess</td><td style="vertical-align:top;">:</td><td><div>False</div></td></tr><tr><td style="font-weight:bold;vertical-align:top;">wsgi_multithread</td><td style="vertical-align:top;">:</td><td><div>True</div></td></tr><tr><td style="font-weight:bold;vertical-align:top;">wsgi_run_once</td><td style="vertical-align:top;">:</td><td><div>False</div></td></tr><tr><td style="font-weight:bold;vertical-align:top;">wsgi_url_scheme</td><td style="vertical-align:top;">:</td><td><div>http</div></td></tr><tr><td style="font-weight:bold;vertical-align:top;">wsgi_version</td><td style="vertical-align:top;">:</td><td><div><table><tr><td><div>1</div></td></tr><tr><td><div>0</div></td></tr></table></div></td></tr></table></div></td></tr><tr><td style="font-weight:bold;vertical-align:top;">extension</td><td style="vertical-align:top;">:</td><td><div>html</div></td></tr><tr><td style="font-weight:bold;vertical-align:top;">folder</td><td style="vertical-align:top;">:</td><td><div>C:\\Users\\ze\\web2py_src\\web2py\\applications\\web2py_angularjs\\</div></td></tr><tr><td style="font-weight:bold;vertical-align:top;">function</td><td style="vertical-align:top;">:</td><td><div>_TEST</div></td></tr><tr><td style="font-weight:bold;vertical-align:top;">global_settings</td><td style="vertical-align:top;">:</td><td><div><table><tr><td style="font-weight:bold;vertical-align:top;">app_folders</td><td style="vertical-align:top;">:</td><td><div>set([&#x27;C:\\\\Users\\\\ze\\\\web2py_src\\\\web2py\\\\applications\\\\admin\\\\&#x27;, &#x27;C:\\\\Users\\\\ze\\\\web2py_src\\\\web2py\\\\applications\\\\app1\\\\&#x27;, &#x27;C:\\\\Users\\\\ze\\\\web2py_src\\\\web2py\\\\applications\\\\welcome\\\\&#x27;, &#x27;C:\\\\Users\\\\ze\\\\web2py_src\\\\web2py\\\\applications\\\\web2py_angularjs\\\\&#x27;])</div></td></tr><tr><td style="font-weight:bold;vertical-align:top;">applications_parent</td><td style="vertical-align:top;">:</td><td><div>C:\\Users\\ze\\web2py_src\\web2py</div></td></tr><tr><td style="font-weight:bold;vertical-align:top;">cmd_args</td><td style="vertical-align:top;">:</td><td><div><table></table></div></td></tr><tr><td style="font-weight:bold;vertical-align:top;">cmd_options</td><td style="vertical-align:top;">:</td><td><div>&lt;Values at 0x3909648: {&#x27;verbose&#x27;: False, &#x27;ip&#x27;: &#x27;127.0.0.1&#x27;, &#x27;debuglevel&#x27;: 30, &#x27;with_scheduler&#x27;: False, &#x27;shutdown_timeout&#x27;: 5, &#x27;taskbar&#x27;: False, &#x27;with_coverage&#x27;: False, &#x27;pid_filename&#x27;: &#x27;httpserver.pid&#x27;, &#x27;maxthreads&#x27;: None, &#x27;softcron&#x27;: False, &#x27;server_name&#x27;: &#x27;007888&#x27;, &#x27;bpython&#x27;: False, &#x27;nogui&#x27;: False, &#x27;port&#x27;: 8000, &#x27;print_errors&#x27;: False, &#x27;extcron&#x27;: False, &#x27;runcron&#x27;: False, &#x27;run_system_tests&#x27;: False, &#x27;test&#x27;: None, &#x27;folder&#x27;: &#x27;C:\\\\Users\\\\ze\\\\web2py_src\\\\web2py&#x27;, &#x27;config&#x27;: &#x27;&#x27;, &#x27;minthreads&#x27;: None, &#x27;shell&#x27;: None, &#x27;run&#x27;: &#x27;&#x27;, &#x27;log_filename&#x27;: &#x27;httpserver.log&#x27;, &#x27;profiler_dir&#x27;: None, &#x27;args&#x27;: [&#x27;&#x27;], &#x27;socket_timeout&#x27;: 5, &#x27;ssl_ca_certificate&#x27;: None, &#x27;scheduler&#x27;: None, &#x27;interfaces&#x27;: None, &#x27;ssl_private_key&#x27;: &#x27;&#x27;, &#x27;gae&#x27;: None, &#x27;password&#x27;: &#x27;******&#x27;, &#x27;request_queue_size&#x27;: 5, &#x27;ssl_certificate&#x27;: &#x27;&#x27;, &#x27;cronjob&#x27;: False, &#x27;numthreads&#x27;: None, &#x27;quiet&#x27;: False, &#x27;import_models&#x27;: False, &#x27;timeout&#x27;: 10, &#x27;plain&#x27;: False, &#x27;nobanner&#x27;: False}&gt;</div></td></tr><tr><td style="font-weight:bold;vertical-align:top;">db_sessions</td><td style="vertical-align:top;">:</td><td><div>set([])</div></td></tr><tr><td style="font-weight:bold;vertical-align:top;">debugging</td><td style="vertical-align:top;">:</td><td><div>True</div></td></tr><tr><td style="font-weight:bold;vertical-align:top;">gluon_parent</td><td style="vertical-align:top;">:</td><td><div>C:\\Users\\ze\\web2py_src\\web2py</div></td></tr><tr><td style="font-weight:bold;vertical-align:top;">is_jython</td><td style="vertical-align:top;">:</td><td><div>False</div></td></tr><tr><td style="font-weight:bold;vertical-align:top;">is_pypy</td><td style="vertical-align:top;">:</td><td><div>False</div></td></tr><tr><td style="font-weight:bold;vertical-align:top;">is_source</td><td style="vertical-align:top;">:</td><td><div>True</div></td></tr><tr><td style="font-weight:bold;vertical-align:top;">local_hosts</td><td style="vertical-align:top;">:</td><td><div><table><tr><td><div>fe80::34f8:418b:9ddd:7bdd%7</div></td></tr><tr><td><div>::ffff:127.0.0.1</div></td></tr><tr><td><div>::1</div></td></tr><tr><td><div>007888.lan</div></td></tr><tr><td><div>007888</div></td></tr><tr><td><div>192.168.1.218</div></td></tr><tr><td><div>127.0.0.1</div></td></tr></table></div></td></tr><tr><td style="font-weight:bold;vertical-align:top;">web2py_version</td><td style="vertical-align:top;">:</td><td><div>2.14.6-stable+timestamp.2016.05.10.00.21.47</div></td></tr></table></div></td></tr><tr><td style="font-weight:bold;vertical-align:top;">is_https</td><td style="vertical-align:top;">:</td><td><div>False</div></td></tr><tr><td style="font-weight:bold;vertical-align:top;">is_local</td><td style="vertical-align:top;">:</td><td><div>True</div></td></tr><tr><td style="font-weight:bold;vertical-align:top;">is_restful</td><td style="vertical-align:top;">:</td><td><div>False</div></td></tr><tr><td style="font-weight:bold;vertical-align:top;">is_scheduler</td><td style="vertical-align:top;">:</td><td><div>False</div></td></tr><tr><td style="font-weight:bold;vertical-align:top;">is_shell</td><td style="vertical-align:top;">:</td><td><div>False</div></td></tr><tr><td style="font-weight:bold;vertical-align:top;">now</td><td style="vertical-align:top;">:</td><td><div>datetime.datetime(2016, 8, 10, 16, 58, 35, 773000)</div></td></tr><tr><td style="font-weight:bold;vertical-align:top;">raw_args</td><td style="vertical-align:top;">:</td><td><div></div></td></tr><tr><td style="font-weight:bold;vertical-align:top;">raw_extension</td><td style="vertical-align:top;">:</td><td><div>None</div></td></tr><tr><td style="font-weight:bold;vertical-align:top;">url</td><td style="vertical-align:top;">:</td><td><div>/web2py_angularjs/default/_TEST</div></td></tr><tr><td style="font-weight:bold;vertical-align:top;">utcnow</td><td style="vertical-align:top;">:</td><td><div>datetime.datetime(2016, 8, 10, 15, 58, 35, 773000)</div></td></tr><tr><td style="font-weight:bold;vertical-align:top;">wsgi</td><td style="vertical-align:top;">:</td><td><div>&lt;gluon.main.LazyWSGI object at 0x0B923CB0&gt;</div></td></tr></table></div>'
tRp56
sS'frames'
p57
(lp58
(dp59
S'file'
p60
S'C:\\Users\\ze\\web2py_src\\web2py\\gluon\\main.py'
p61
sS'dump'
p62
(dp63
S'gluon.debug.dbg.do_debug'
p64
S'<bound method Qdb.do_debug of <gluon.contrib.qdb.Qdb instance>>'
p65
sS'gluon.debug'
p66
S"<module 'gluon.debug' from 'C:\\Users\\ze\\web2py_src\\web2py\\gluon\\debug.pyc'>"
p67
sS'gluon.debug.dbg'
p68
S'<gluon.contrib.qdb.Qdb instance>'
p69
sS'request'
p70
S"<Storage {'_vars': None, 'function': '_TEST', 'c..._src\\\\web2py\\\\applications\\\\web2py_angularjs\\\\'}>"
p71
sS'gluon'
p72
S"<module 'gluon' from 'C:\\Users\\ze\\web2py_src\\web2py\\gluon\\__init__.pyc'>"
p73
sS'request.folder'
p74
S"r'C:\\Users\\ze\\web2py_src\\web2py\\applications\\web2py_angularjs\\'"
p75
sS'mainpyfile'
p76
S'undefined'
p77
ssS'lnum'
p78
I447
sS'lines'
p79
(dp80
I448
S''
sI449
S'                serve_controller(request, response, session)'
p81
sI450
S''
sI451
S'            except HTTP, http_response:'
p82
sI442
S'                # ##################################################'
p83
sI443
S''
sI444
S'                if global_settings.debugging and app != "admin":'
p84
sI445
S'                    import gluon.debug'
p85
sI446
S'                    # activate the debugger'
p86
sI447
S'                    gluon.debug.dbg.do_debug(mainpyfile=request.folder)'
p87
ssS'call'
p88
S"(environ={'CONTENT_LENGTH': '0', 'HTTP_ACCEPT': '*/*', 'HTTP_ACCEPT_ENCODING': 'gzip, deflate', 'HTTP_ACCEPT_LANGUAGE': 'pt-PT,pt;q=0.8,en-US;q=0.6,en;q=0.4', 'HTTP_CACHE_CONTROL': 'max-age=0', 'HTTP_CONNECTION': 'keep-alive', 'HTTP_CONTENT_LENGTH': '0', 'HTTP_COOKIE': 'session_id_huubapp=127.0.0.1-8538c100-fc61-4dc8-...in=127.0.0.1-129af587-874b-488c-b9a8-e70d8562c202', 'HTTP_HOST': '127.0.0.1:8000', 'HTTP_ORIGIN': 'http://127.0.0.1:8000', ...}, responder=<function responder2>)"
p89
sS'func'
p90
S'wsgibase'
p91
sa(dp92
g60
S'C:\\Users\\ze\\web2py_src\\web2py\\gluon\\contrib\\qdb.py'
p93
sg62
(dp94
S'self'
p95
S'<gluon.contrib.qdb.Qdb instance>'
p96
sS'self.reset'
p97
S'<bound method Qdb.reset of <gluon.contrib.qdb.Qdb instance>>'
p98
ssg78
I214
sg79
(dp99
I209
S'        finally:'
p100
sI210
S'            self.waiting = False'
p101
sI211
S'        self.frame = None'
p102
sI212
S''
sI213
S'    def do_debug(self, mainpyfile=None, wait_breakpoint=1):'
p103
sI214
S'        self.reset()'
p104
sI215
S'        if not wait_breakpoint or mainpyfile:'
p105
sI216
S'            self._wait_for_mainpyfile = 1'
p106
sI217
S'            if not mainpyfile:'
p107
sI218
S'                frame = sys._getframe().f_back'
p108
ssg88
S"(self=<gluon.contrib.qdb.Qdb instance>, mainpyfile=r'C:\\Users\\ze\\web2py_src\\web2py\\applications\\web2py_angularjs\\', wait_breakpoint=1)"
p109
sg90
S'do_debug'
p110
sa(dp111
g60
S'C:\\Users\\ze\\web2py_src\\web2py\\gluon\\contrib\\qdb.py'
p112
sg62
(dp113
S'bdb.Bdb.reset'
p114
S'<unbound method Bdb.reset>'
p115
sS'self'
p116
S'<gluon.contrib.qdb.Qdb instance>'
p117
sS'global bdb'
p118
S"<module 'bdb' from 'C:\\Python27\\lib\\bdb.pyc'>"
p119
sS'bdb.Bdb'
p120
S'<class bdb.Bdb>'
p121
ssg78
I440
sg79
(dp122
I435
S'        assignment of the _ variable in the builtins.'
p123
sI436
S'        """'
p124
sI437
S'        self.displayhook_value = repr(obj)'
p125
sI438
S''
sI439
S'    def reset(self):'
p126
sI440
S'        bdb.Bdb.reset(self)'
p127
sI441
S'        self.waiting = False'
p128
sI442
S'        self.frame = None'
p129
sI443
S''
sI444
S'    def post_mortem(self, t=None):'
p130
ssg88
S'(self=<gluon.contrib.qdb.Qdb instance>)'
p131
sg90
S'reset'
p132
sa(dp133
g60
S'C:\\Python27\\lib\\bdb.py'
p134
sg62
(dp135
S'linecache'
p136
S"<module 'linecache' from 'C:\\Python27\\lib\\linecache.pyc'>"
p137
sS'linecache.checkcache'
p138
S'<function checkcache>'
p139
ssg78
I41
sg79
(dp140
I36
S'            self.fncache[filename] = canonic'
p141
sI37
S'        return canonic'
p142
sI38
S''
sI39
S'    def reset(self):'
p143
sI40
S'        import linecache'
p144
sI41
S'        linecache.checkcache()'
p145
sI42
S'        self.botframe = None'
p146
sI43
S'        self._set_stopinfo(None, None)'
p147
sI44
S''
sI45
S'    def trace_dispatch(self, frame, event, arg):'
p148
ssg88
S'(self=<gluon.contrib.qdb.Qdb instance>)'
p149
sg90
g132
sa(dp150
g60
S'C:\\Python27\\lib\\linecache.py'
p151
sg62
(dp152
S'global cache'
p153
S'{r\'C:\\Python27\\lib\\bdb.py\': (21714L, 1466894762.0, [\'"""Debugger basics"""\\n\', \'\\n\', \'import fnmatch\\n\', \'import sys\\n\', \'import os\\n\', \'import types\\n\', \'\\n\', \'__all__ = ["BdbQuit","Bdb","Breakpoint"]\\n\', \'\\n\', \'class BdbQuit(Exception):\\n\', \'    """Exception to give up completely"""\\n\', \'\\n\', \'\\n\', \'class Bdb:\\n\', \'\\n\', \'    """Generic Python debugger base class.\\n\', \'\\n\', \'    This class takes care of details of the trace facility;\\n\', \'    a derived class should implement user interaction.\\n\', \'    The standard debugger class (pdb.Pdb) is an example.\\n\', ...], r\'C:\\Python27\\lib\\bdb.py\'), r\'C:\\Python27\\lib\\doctest.py\': (105210L, 1466894764.0, [\'# Module doctest.\\n\', \'# Released to the public domain 16-Jan-2001, by Tim Peters (tim@python.org).\\n\', \'# Major enhancements and refactoring by:\\n\', \'#     Jim Fulton\\n\', \'#     Edward Loper\\n\', \'\\n\', \'# Provided as-is; use at your own risk; no warranty; no promises; enjoy!\\n\', \'\\n\', \'r"""Module doctest -- a framework for running examples in docstrings.\\n\', \'\\n\', \'In simplest use, end each module M to be tested with:\\n\', \'\\n\', \'def _test():\\n\', \'    import doctest\\n\', \'    doctest.testmod()\\n\', \'\\n\', \'if __name__ == "__main__":\\n\', \'    _test()\\n\', \'\\n\', \'Then running the module as a script will cause the examples in the\\n\', ...], r\'C:\\Python27\\lib\\doctest.py\'), r\'C:\\Python27\\lib\\linecache.py\': (4027L, 1466894768.0, [\'"""Cache lines from files.\\n\', \'\\n\', \'This is intended to read lines from modules imported -- hence if a filename\\n\', \'is not found, it will look down the module search path for a file by\\n\', \'that name.\\n\', \'"""\\n\', \'\\n\', \'import sys\\n\', \'import os\\n\', \'\\n\', \'__all__ = ["getline", "clearcache", "checkcache"]\\n\', \'\\n\', \'def getline(filename, lineno, module_globals=None):\\n\', \'    lines = getlines(filename, module_globals)\\n\', \'    if 1 <= lineno <= len(lines):\\n\', \'        return lines[lineno-1]\\n\', \'    else:\\n\', "        return \'\'\\n", \'\\n\', \'\\n\', ...], r\'C:\\Python27\\lib\\linecache.py\'), r\'C:\\Python27\\lib\\site-packages\\pydal\\adapters\\base.py\': (35451L, 1467117432.0, [\'import copy\\n\', \'import sys\\n\', \'import types\\n\', \'from collections import defaultdict\\n\', \'from contextlib import contextmanager\\n\', \'from .._compat import PY2, with_metaclass, iterkeys, iteritems, hashlib_md5, \\\\\\n\', \'    integer_types\\n\', \'from .._globals import IDENTITY\\n\', \'from ..connection import ConnectionPool\\n\', \'from ..exceptions import NotOnNOSQLError\\n\', \'from ..helpers.classes import Reference, ExecutionHandler, SQLCustomType, \\\\\\n\', \'    SQLALL, NullDriver\\n\', \'from ..helpers.methods import use_common_filters, xorify\\n\', \'from ..helpers.regex import REGEX_SELECT_AS_PARSER, REGEX_TABLE_DOT_FIELD\\n\', \'from ..migrator import Migrator\\n\', \'from ..objects import Table, Field, Expression, Query, Rows, IterRows, \\\\\\n\', \'    LazySet, LazyReferenceGetter, VirtualCommand\\n\', \'from ..utils import deprecated\\n\', \'from . import AdapterMeta, with_connection, with_connection_or_raise\\n\', \'\\n\', ...], r\'C:\\Python27\\lib\\site-packages\\pydal\\adapters\\base.py\'), r\'C:\\Python27\\lib\\site-packages\\pydal\\objects.py\': (108321L, 1469488383.0, [\'# -*- coding: utf-8 -*-\\n\', \'\\n\', \'import base64\\n\', \'import cgi\\n\', \'import copy\\n\', \'import csv\\n\', \'import datetime\\n\', \'import decimal\\n\', \'import os\\n\', \'import shutil\\n\', \'import sys\\n\', \'import types\\n\', \'\\n\', \'from ._compat import PY2, StringIO, BytesIO, pjoin, exists, hashlib_md5, \\\\\\n\', \'    integer_types, basestring, iteritems, xrange, implements_iterator, \\\\\\n\', \'    implements_bool, copyreg, reduce, string_types, to_bytes, to_native\\n\', \'from ._globals import DEFAULT, IDENTITY, AND, OR\\n\', \'from ._gae import Key\\n\', \'from .exceptions import NotFoundException, NotAuthorizedException\\n\', \'from .helpers.regex import REGEX_TABLE_DOT_FIELD, REGEX_ALPHANUMERIC, \\\\\\n\', ...], r\'C:\\Python27\\lib\\site-packages\\pydal\\objects.py\'), r\'C:\\Python27\\lib\\site-packages\\pydal\\representers\\__init__.py\': (8875L, 1465215219.0, [\'from collections import defaultdict\\n\', \'from .._compat import PY2, with_metaclass, iteritems, to_unicode, to_bytes, \\\\\\n\', \'    string_types\\n\', \'from .._gae import gae\\n\', \'from ..helpers._internals import Dispatcher\\n\', \'from ..helpers.regex import REGEX_TYPE\\n\', \'\\n\', \'representers = Dispatcher("representer")\\n\', \'\\n\', \'\\n\', \'class for_type(object):\\n\', \'    def __init__(self, field_type, encode=False, adapt=True):\\n\', \'        self.field_type = field_type\\n\', \'        self.encode = encode\\n\', \'        self.adapt = adapt\\n\', \'\\n\', \'    def __call__(self, f):\\n\', \'        self.f = f\\n\', \'        return self\\n\', \'\\n\', ...], r\'C:\\Python27\\lib\\site-packages\\pydal\\representers\\__init__.py\'), r\'C:\\Python27\\lib\\site-packages\\pydal\\representers\\base.py\': (8720L, 1465215219.0, [\'import json\\n\', \'from base64 import b64encode\\n\', \'from datetime import date, time, datetime\\n\', \'from .._compat import PY2, integer_types, to_unicode, to_bytes, basestring\\n\', \'from ..adapters.base import SQLAdapter, NoSQLAdapter\\n\', \'from ..helpers.classes import Reference, SQLCustomType\\n\', \'from ..helpers.methods import bar_encode\\n\', \'from ..helpers.serializers import serializers\\n\', \'from ..objects import Row, Expression, Field\\n\', \'from . import (\\n\', \'    Representer, representers, for_type, before_type, for_instance, pre)\\n\', \'\\n\', \'long = integer_types[-1]\\n\', \'NoneType = type(None)\\n\', \'\\n\', \'\\n\', \'class BaseRepresenter(Representer):\\n\', "    @for_type(\'boolean\', adapt=False)\\n", \'    def _boolean(self, value):\\n\', "        if value and not str(value)[:1].upper() in \'0F\':\\n", ...], r\'C:\\Python27\\lib\\site-packages\\pydal\\representers\\base.py\'), r\'C:\\Users\\ze\\web2py_src\\web2py\\applications\\web2py_angularjs\\controllers/appadmin.py\': (25689L, 1462839681.0, [\'# -*- coding: utf-8 -*-\\n\', \'\\n\', \'# ##########################################################\\n\', \'# ## make sure administrator is on localhost\\n\', \'# ###########################################################\\n\', \'\\n\', \'import os\\n\', \'import socket\\n\', \'import datetime\\n\', \'import copy\\n\', \'import gluon.contenttype\\n\', \'import gluon.fileutils\\n\', \'\\n\', \'try:\\n\', \'    import pygraphviz as pgv\\n\', \'except ImportError:\\n\', \'    pgv = None\\n\', \'\\n\', \'is_gae = request.env.web2py_runtime_gae or False\\n\', \'\\n\', ...], r\'C:\\Users\\ze\\web2py_src\\web2py\\applications\\web2py_angularjs\\controllers/appadmin.py\'), r\'C:\\Users\\ze\\web2py_src\\web2py\\applications\\web2py_angularjs\\controllers/tasks.py\': (184L, 1470745585.547639, [\'# -*- coding: utf-8 -*-\\n\', \'\\n\', \'import gluon.contrib.simplejson\\n\', \'\\n\', \'def index():\\n\', \'    rows = db(db.task).select().as_list()\\n\', \'    return dict(task_list=gluon.contrib.simplejson.dumps(rows))\\n\'], r\'C:\\Users\\ze\\web2py_src\\web2py\\applications\\web2py_angularjs\\controllers/tasks.py\'), r\'C:\\Users\\ze\\web2py_src\\web2py\\gluon\\cache.py\': (26666L, 1462839682.0, [\'#!/usr/bin/env python\\n\', \'# -*- coding: utf-8 -*-\\n\', \'\\n\', \'"""\\n\', \'| This file is part of the web2py Web Framework\\n\', \'| Copyrighted by Massimo Di Pierro <mdipierro@cs.depaul.edu>\\n\', \'| License: LGPLv3 (http://www.gnu.org/licenses/lgpl.html)\\n\', \'\\n\', \'Basic caching classes and methods\\n\', \'---------------------------------\\n\', \'\\n\', \'- Cache - The generic caching object interfacing with the others\\n\', \'- CacheInRam - providing caching in ram\\n\', \'- CacheOnDisk - provides caches on disk\\n\', \'\\n\', \'Memcache is also available via a different module (see gluon.contrib.memcache)\\n\', \'\\n\', \'When web2py is running on Google App Engine,\\n\', \'caching will be provided by the GAE memcache\\n\', \'(see gluon.contrib.gae_memcache)\\n\', ...], r\'C:\\Users\\ze\\web2py_src\\web2py\\gluon\\cache.py\'), ...}'
p154
sS'lines'
p155
S'[\'#!/bin/env python\\n\', \'# -*- coding: utf-8 -*-\\n\', \'\\n\', \'"""\\n\', \'| This file is part of the web2py Web Framework\\n\', \'| Copyrighted by Massimo Di Pierro <mdipierro@cs.depaul.edu>\\n\', \'| License: LGPLv3 (http://www.gnu.org/licenses/lgpl.html)\\n\', \'\\n\', \'The gluon wsgi application\\n\', \'---------------------------\\n\', \'"""\\n\', \'\\n\', \'if False: import import_all # DO NOT REMOVE PART OF FREEZE PROCESS\\n\', \'import gc\\n\', \'import Cookie\\n\', \'import os\\n\', \'import re\\n\', \'import copy\\n\', \'import sys\\n\', \'import time\\n\', ...]'
p156
sS'filename'
p157
S"r'C:\\Users\\ze\\web2py_src\\web2py\\applications\\web2py_angularjs\\controllers/default.py'"
p158
sS'mtime'
p159
S'1462839684.0'
p160
sS'fullname'
p161
S"r'C:\\Users\\ze\\web2py_src\\web2py\\gluon\\main.py'"
p162
sS'size'
p163
S'29990L'
p164
ssg78
I60
sg79
(dp165
I64
S'            stat = os.stat(fullname)'
p166
sI55
S'            filenames = [filename]'
p167
sI56
S'        else:'
p168
sI57
S'            return'
p169
sI58
S''
sI59
S'    for filename in filenames:'
p170
sI60
S'        size, mtime, lines, fullname = cache[filename]'
p171
sI61
S'        if mtime is None:'
p172
sI62
S'            continue   # no-op for files loaded via a __loader__'
p173
sI63
S'        try:'
p174
ssg88
S"(filename=r'C:\\Users\\ze\\web2py_src\\web2py\\applications\\web2py_angularjs\\controllers/default.py')"
p175
sg90
S'checkcache'
p176
sasS'pyver'
p177
S'Python 2.7.12: C:\\Python27\\python.exe (prefix: C:\\Python27)'
p178
sS'session'
p179
g55
(S's5\x01\x00\x00<div><table><tr><td style="font-weight:bold;vertical-align:top;">last_orderby</td><td style="vertical-align:top;">:</td><td><div>None</div></td></tr><tr><td style="font-weight:bold;vertical-align:top;">last_query</td><td style="vertical-align:top;">:</td><td><div>db.task.id&gt;0</div></td></tr></table></div>'
tRp180
sS'etype'
p181
S"<type 'exceptions.KeyError'>"
p182
sS'date'
p183
S'Wed Aug 10 16:58:35 2016'
p184
sS'response'
p185
g55
(S's\xff\x15\x00\x00<div><table><tr><td style="font-weight:bold;vertical-align:top;">body</td><td style="vertical-align:top;">:</td><td><div>&lt;cStringIO.StringO object at 0x0B045700&gt;</div></td></tr><tr><td style="font-weight:bold;vertical-align:top;">cookies</td><td style="vertical-align:top;">:</td><td><div><table><tr><td style="font-weight:bold;vertical-align:top;">session_id_web2py_angularjs</td><td style="vertical-align:top;">:</td><td><div>127.0.0.1-d53c2972-db0f-4172-93a7-9b93d77f568e<table><tr><td style="font-weight:bold;vertical-align:top;">comment</td><td style="vertical-align:top;">:</td><td><div></div></td></tr><tr><td style="font-weight:bold;vertical-align:top;">domain</td><td style="vertical-align:top;">:</td><td><div></div></td></tr><tr><td style="font-weight:bold;vertical-align:top;">expires</td><td style="vertical-align:top;">:</td><td><div></div></td></tr><tr><td style="font-weight:bold;vertical-align:top;">httponly</td><td style="vertical-align:top;">:</td><td><div></div></td></tr><tr><td style="font-weight:bold;vertical-align:top;">max-age</td><td style="vertical-align:top;">:</td><td><div></div></td></tr><tr><td style="font-weight:bold;vertical-align:top;">path</td><td style="vertical-align:top;">:</td><td><div>/</div></td></tr><tr><td style="font-weight:bold;vertical-align:top;">secure</td><td style="vertical-align:top;">:</td><td><div></div></td></tr><tr><td style="font-weight:bold;vertical-align:top;">version</td><td style="vertical-align:top;">:</td><td><div></div></td></tr></table></div></td></tr></table></div></td></tr><tr><td style="font-weight:bold;vertical-align:top;">delimiters</td><td style="vertical-align:top;">:</td><td><div><table><tr><td><div>{{</div></td></tr><tr><td><div>}}</div></td></tr></table></div></td></tr><tr><td style="font-weight:bold;vertical-align:top;">files</td><td style="vertical-align:top;">:</td><td><div><table></table></div></td></tr><tr><td style="font-weight:bold;vertical-align:top;">flash</td><td style="vertical-align:top;">:</td><td><div></div></td></tr><tr><td style="font-weight:bold;vertical-align:top;">form_label_separator</td><td style="vertical-align:top;">:</td><td><div>: </div></td></tr><tr><td style="font-weight:bold;vertical-align:top;">formstyle</td><td style="vertical-align:top;">:</td><td><div>table3cols</div></td></tr><tr><td style="font-weight:bold;vertical-align:top;">generic_patterns</td><td style="vertical-align:top;">:</td><td><div><table><tr><td><div>*</div></td></tr></table></div></td></tr><tr><td style="font-weight:bold;vertical-align:top;">headers</td><td style="vertical-align:top;">:</td><td><div><table><tr><td style="font-weight:bold;vertical-align:top;">X-Powered-By</td><td style="vertical-align:top;">:</td><td><div>web2py</div></td></tr></table></div></td></tr><tr><td style="font-weight:bold;vertical-align:top;">menu</td><td style="vertical-align:top;">:</td><td><div><table></table></div></td></tr><tr><td style="font-weight:bold;vertical-align:top;">meta</td><td style="vertical-align:top;">:</td><td><div><table></table></div></td></tr><tr><td style="font-weight:bold;vertical-align:top;">postprocessing</td><td style="vertical-align:top;">:</td><td><div><table></table></div></td></tr><tr><td style="font-weight:bold;vertical-align:top;">session_client</td><td style="vertical-align:top;">:</td><td><div>127.0.0.1</div></td></tr><tr><td style="font-weight:bold;vertical-align:top;">session_cookie_compression_level</td><td style="vertical-align:top;">:</td><td><div>None</div></td></tr><tr><td style="font-weight:bold;vertical-align:top;">session_cookie_expires</td><td style="vertical-align:top;">:</td><td><div>None</div></td></tr><tr><td style="font-weight:bold;vertical-align:top;">session_data_name</td><td style="vertical-align:top;">:</td><td><div>session_data_web2py_angularjs</div></td></tr><tr><td style="font-weight:bold;vertical-align:top;">session_file</td><td style="vertical-align:top;">:</td><td><div>&lt;open file &#x27;C:\\\\Users\\\\ze\\\\web2py_src\\\\web2py\\\\applications\\\\web2py_angularjs\\\\sessions\\\\174\\\\19e\\\\127.0.0.1-d53c2972-db0f-4172-93a7-9b93d77f568e&#x27;, mode &#x27;rb+&#x27; at 0x09C78498&gt;</div></td></tr><tr><td style="font-weight:bold;vertical-align:top;">session_filename</td><td style="vertical-align:top;">:</td><td><div>C:\\Users\\ze\\web2py_src\\web2py\\applications\\web2py_angularjs\\sessions\\127.0.0.1-d53c2972-db0f-4172-93a7-9b93d77f568e</div></td></tr><tr><td style="font-weight:bold;vertical-align:top;">session_hash</td><td style="vertical-align:top;">:</td><td><div>e60e4d6a48b43cbde6d3b8b65af43750</div></td></tr><tr><td style="font-weight:bold;vertical-align:top;">session_id</td><td style="vertical-align:top;">:</td><td><div>127.0.0.1-d53c2972-db0f-4172-93a7-9b93d77f568e</div></td></tr><tr><td style="font-weight:bold;vertical-align:top;">session_id_name</td><td style="vertical-align:top;">:</td><td><div>session_id_web2py_angularjs</div></td></tr><tr><td style="font-weight:bold;vertical-align:top;">session_locked</td><td style="vertical-align:top;">:</td><td><div>True</div></td></tr><tr><td style="font-weight:bold;vertical-align:top;">session_masterapp</td><td style="vertical-align:top;">:</td><td><div>web2py_angularjs</div></td></tr><tr><td style="font-weight:bold;vertical-align:top;">session_new</td><td style="vertical-align:top;">:</td><td><div>False</div></td></tr><tr><td style="font-weight:bold;vertical-align:top;">session_storage_type</td><td style="vertical-align:top;">:</td><td><div>file</div></td></tr><tr><td style="font-weight:bold;vertical-align:top;">status</td><td style="vertical-align:top;">:</td><td><div>200</div></td></tr></table></div>'
tRp186
sS'locals'
p187
(dp188
S'stat'
p189
S'nt.stat_result(st_mode=33206, st_ino=0L, st_dev=...503L, st_mtime=1462839684L, st_ctime=1470043503L)'
p190
sg79
S'[\'#!/bin/env python\\n\', \'# -*- coding: utf-8 -*-\\n\', \'\\n\', \'"""\\n\', \'| This file is part of the web2py Web Framework\\n\', \'| Copyrighted by Massimo Di Pierro <mdipierro@cs.depaul.edu>\\n\', \'| License: LGPLv3 (http://www.gnu.org/licenses/lgpl.html)\\n\', \'\\n\', \'The gluon wsgi application\\n\', \'---------------------------\\n\', \'"""\\n\', \'\\n\', \'if False: import import_all # DO NOT REMOVE PART OF FREEZE PROCESS\\n\', \'import gc\\n\', \'import Cookie\\n\', \'import os\\n\', \'import re\\n\', \'import copy\\n\', \'import sys\\n\', \'import time\\n\', ...]'
p191
sS'filenames'
p192
S"[r'C:\\Python27\\lib\\site-packages\\pydal\\adapters\\base.py', r'C:\\Users\\ze\\web2py_src\\web2py\\gluon\\globals.py', r'C:\\Python27\\lib\\doctest.py', r'C:\\Users\\ze\\web2py_src\\web2py\\gluon\\contrib\\qdb.py', r'C:\\Python27\\lib\\site-packages\\pydal\\representers\\base.py', r'C:\\Python27\\lib\\linecache.py', r'C:\\Users\\ze\\web2py_src\\web2py\\gluon\\cache.py', r'C:\\Python27\\lib\\bdb.py', r'C:\\Users\\ze\\web2py_src\\web2py\\gluon\\restricted.py', r'C:\\Users\\ze\\web2py_src\\web2py\\gluon\\main.py', r'C:\\Users\\ze\\web2py_src\\web2py\\applications\\web2py_angularjs\\controllers/default.py', r'C:\\Users\\ze\\web2py_src\\web2py\\applications\\web2py_angularjs\\controllers/tasks.py', r'C:\\Python27\\lib\\site-packages\\pydal\\representers\\__init__.py', r'C:\\Users\\ze\\web2py_src\\web2py\\applications\\web2py_angularjs\\controllers/appadmin.py', r'C:\\Python27\\lib\\site-packages\\pydal\\objects.py']"
p193
sS'mtime'
p194
S'1462839684.0'
p195
sS'fullname'
p196
S"r'C:\\Users\\ze\\web2py_src\\web2py\\gluon\\main.py'"
p197
sS'filename'
p198
S"r'C:\\Users\\ze\\web2py_src\\web2py\\applications\\web2py_angularjs\\controllers/default.py'"
p199
sS'size'
p200
S'29990L'
p201
sssS'traceback'
p202
S'Traceback (most recent call last):\n  File "C:\\Users\\ze\\web2py_src\\web2py\\gluon\\main.py", line 447, in wsgibase\n    gluon.debug.dbg.do_debug(mainpyfile=request.folder)\n  File "C:\\Users\\ze\\web2py_src\\web2py\\gluon\\contrib\\qdb.py", line 214, in do_debug\n    self.reset()\n  File "C:\\Users\\ze\\web2py_src\\web2py\\gluon\\contrib\\qdb.py", line 440, in reset\n    bdb.Bdb.reset(self)\n  File "C:\\Python27\\lib\\bdb.py", line 41, in reset\n    linecache.checkcache()\n  File "C:\\Python27\\lib\\linecache.py", line 60, in checkcache\n    size, mtime, lines, fullname = cache[filename]\nKeyError: \'C:\\\\Users\\\\ze\\\\web2py_src\\\\web2py\\\\applications\\\\web2py_angularjs\\\\controllers/default.py\'\n'
p203
s.